; Function Attrs: mustprogress nofree norecurse nosync nounwind willreturn memory(readwrite, inaccessiblemem: none) uwtable
define dso_local void @_ZN38btDeformableNodeRigidContactConstraint12applyImpulseERK9btVector3(ptr noundef nonnull readonly align 8 captures(none) dereferenceable(104) %0, ptr noundef nonnull readonly align 4 captures(none) dereferenceable(16) %1) unnamed_addr #7 align 2 {
  %3 = getelementptr inbounds nuw i8, ptr %0, i64 88
  %4 = load ptr, ptr %3, align 8, !tbaa !77
  %5 = getelementptr inbounds nuw i8, ptr %4, i64 140
  %6 = load float, ptr %5, align 4, !tbaa !37
  %7 = load float, ptr %1, align 4, !tbaa !37
  %8 = getelementptr inbounds nuw i8, ptr %4, i64 144
  %9 = load float, ptr %8, align 4, !tbaa !37
  %10 = getelementptr inbounds nuw i8, ptr %1, i64 4
  %11 = load float, ptr %10, align 4, !tbaa !37
  %12 = fmul float %9, %11
  %13 = tail call float @llvm.fmuladd.f32(float %6, float %7, float %12)
  %14 = getelementptr inbounds nuw i8, ptr %4, i64 148
  %15 = load float, ptr %14, align 4, !tbaa !37
  %16 = getelementptr inbounds nuw i8, ptr %1, i64 8
  %17 = load float, ptr %16, align 4, !tbaa !37
  %18 = tail call noundef float @llvm.fmuladd.f32(float %15, float %17, float %13)
  %19 = getelementptr inbounds nuw i8, ptr %4, i64 156
  %20 = load float, ptr %19, align 4, !tbaa !37
  %21 = getelementptr inbounds nuw i8, ptr %4, i64 160
  %22 = load float, ptr %21, align 4, !tbaa !37
  %23 = fmul float %11, %22
  %24 = tail call float @llvm.fmuladd.f32(float %20, float %7, float %23)
  %25 = getelementptr inbounds nuw i8, ptr %4, i64 164
  %26 = load float, ptr %25, align 4, !tbaa !37
  %27 = tail call noundef float @llvm.fmuladd.f32(float %26, float %17, float %24)
  %28 = getelementptr inbounds nuw i8, ptr %4, i64 172
  %29 = load float, ptr %28, align 4, !tbaa !37
  %30 = getelementptr inbounds nuw i8, ptr %4, i64 176
  %31 = load float, ptr %30, align 4, !tbaa !37
  %32 = fmul float %11, %31
  %33 = tail call float @llvm.fmuladd.f32(float %29, float %7, float %32)
  %34 = getelementptr inbounds nuw i8, ptr %4, i64 180
  %35 = load float, ptr %34, align 4, !tbaa !37
  %36 = tail call noundef float @llvm.fmuladd.f32(float %35, float %17, float %33)
  %37 = getelementptr inbounds nuw i8, ptr %4, i64 848
  %38 = load ptr, ptr %37, align 8, !tbaa !71
  %39 = getelementptr inbounds nuw i8, ptr %38, i64 48
  %40 = load float, ptr %39, align 4, !tbaa !37
  %41 = fsub float %40, %18
  store float %41, ptr %39, align 4, !tbaa !37
  %42 = getelementptr inbounds nuw i8, ptr %38, i64 52
  %43 = load float, ptr %42, align 4, !tbaa !37
  %44 = fsub float %43, %27
  store float %44, ptr %42, align 4, !tbaa !37
  %45 = getelementptr inbounds nuw i8, ptr %38, i64 56
  %46 = load float, ptr %45, align 4, !tbaa !37
  %47 = fsub float %46, %36
  store float %47, ptr %45, align 4, !tbaa !37
  ret void
}